; Function Attrs: mustprogress uwtable
define void @_ZN6icu_7511Formattable4initEv(ptr noundef nonnull align 8 dereferenceable(112) %this) local_unnamed_addr #1 align 2 {
entry:
  %fValue = getelementptr inbounds i8, ptr %this, i64 8
  store i64 0, ptr %fValue, align 8
  %fType = getelementptr inbounds i8, ptr %this, i64 40
  store i32 2, ptr %fType, align 8
  %fDecimalStr = getelementptr inbounds i8, ptr %this, i64 24
  %fBogus = getelementptr inbounds i8, ptr %this, i64 48
  tail call void @llvm.memset.p0.i64(ptr noundef nonnull align 8 dereferenceable(16) %fDecimalStr, i8 0, i64 16, i1 false)
  tail call void @_ZN6icu_7513UnicodeString10setToBogusEv(ptr noundef nonnull align 8 dereferenceable(64) %fBogus)
  ret void
}